; Function Attrs: nounwind uwtable
define ptr @l_Array_forIn_x27Unsafe_loop___at_Lean_pushScope___spec__1___rarg___lambda__2(ptr noundef %0, i64 noundef %1, ptr noundef %2, ptr noundef %3, ptr noundef %4, ptr noundef %5, ptr noundef %6, i64 noundef %7, ptr noundef %8) local_unnamed_addr #2 {
  %10 = ptrtoint ptr %8 to i64
  %11 = and i64 %10, 1
  %.not.i60 = icmp eq i64 %11, 0
  br i1 %.not.i60, label %15, label %12

12:                                               ; preds = %9
  %13 = lshr i64 %10, 1
  %14 = trunc i64 %13 to i32
  br label %lean_obj_tag.exit

15:                                               ; preds = %9
  %16 = getelementptr i8, ptr %8, i64 4
  %.val.i = load i32, ptr %16, align 4
  %17 = lshr i32 %.val.i, 24
  br label %lean_obj_tag.exit

lean_obj_tag.exit:                                ; preds = %12, %15
  %.0.i = phi i32 [ %14, %12 ], [ %17, %15 ]
  %18 = icmp eq i32 %.0.i, 0
  br i1 %18, label %19, label %119

19:                                               ; preds = %lean_obj_tag.exit
  %20 = ptrtoint ptr %6 to i64
  %21 = and i64 %20, 1
  %.not73 = icmp eq i64 %21, 0
  br i1 %.not73, label %22, label %lean_dec.exit43

22:                                               ; preds = %19
  %23 = load i32, ptr %6, align 4, !tbaa !4
  %24 = icmp sgt i32 %23, 1
  br i1 %24, label %25, label %27, !prof !11

25:                                               ; preds = %22
  %26 = add nsw i32 %23, -1
  store i32 %26, ptr %6, align 4, !tbaa !4
  br label %lean_dec.exit43

27:                                               ; preds = %22
  %.not.i = icmp eq i32 %23, 0
  br i1 %.not.i, label %lean_dec.exit43, label %28

28:                                               ; preds = %27
  tail call void @lean_dec_ref_cold(ptr noundef nonnull %6) #7
  br label %lean_dec.exit43

lean_dec.exit43:                                  ; preds = %28, %27, %25, %19
  %29 = ptrtoint ptr %5 to i64
  %30 = and i64 %29, 1
  %.not74 = icmp eq i64 %30, 0
  br i1 %.not74, label %31, label %lean_dec.exit42

31:                                               ; preds = %lean_dec.exit43
  %32 = load i32, ptr %5, align 4, !tbaa !4
  %33 = icmp sgt i32 %32, 1
  br i1 %33, label %34, label %36, !prof !11

34:                                               ; preds = %31
  %35 = add nsw i32 %32, -1
  store i32 %35, ptr %5, align 4, !tbaa !4
  br label %lean_dec.exit42

36:                                               ; preds = %31
  %.not.i44 = icmp eq i32 %32, 0
  br i1 %.not.i44, label %lean_dec.exit42, label %37

37:                                               ; preds = %36
  tail call void @lean_dec_ref_cold(ptr noundef nonnull %5) #7
  br label %lean_dec.exit42

lean_dec.exit42:                                  ; preds = %37, %36, %34, %lean_dec.exit43
  %38 = ptrtoint ptr %4 to i64
  %39 = and i64 %38, 1
  %.not75 = icmp eq i64 %39, 0
  br i1 %.not75, label %40, label %lean_dec.exit41

40:                                               ; preds = %lean_dec.exit42
  %41 = load i32, ptr %4, align 4, !tbaa !4
  %42 = icmp sgt i32 %41, 1
  br i1 %42, label %43, label %45, !prof !11

43:                                               ; preds = %40
  %44 = add nsw i32 %41, -1
  store i32 %44, ptr %4, align 4, !tbaa !4
  br label %lean_dec.exit41

45:                                               ; preds = %40
  %.not.i46 = icmp eq i32 %41, 0
  br i1 %.not.i46, label %lean_dec.exit41, label %46

46:                                               ; preds = %45
  tail call void @lean_dec_ref_cold(ptr noundef nonnull %4) #7
  br label %lean_dec.exit41

lean_dec.exit41:                                  ; preds = %46, %45, %43, %lean_dec.exit42
  %47 = ptrtoint ptr %3 to i64
  %48 = and i64 %47, 1
  %.not76 = icmp eq i64 %48, 0
  br i1 %.not76, label %49, label %lean_dec.exit40

49:                                               ; preds = %lean_dec.exit41
  %50 = load i32, ptr %3, align 4, !tbaa !4
  %51 = icmp sgt i32 %50, 1
  br i1 %51, label %52, label %54, !prof !11

52:                                               ; preds = %49
  %53 = add nsw i32 %50, -1
  store i32 %53, ptr %3, align 4, !tbaa !4
  br label %lean_dec.exit40

54:                                               ; preds = %49
  %.not.i48 = icmp eq i32 %50, 0
  br i1 %.not.i48, label %lean_dec.exit40, label %55

55:                                               ; preds = %54
  tail call void @lean_dec_ref_cold(ptr noundef nonnull %3) #7
  br label %lean_dec.exit40

lean_dec.exit40:                                  ; preds = %55, %54, %52, %lean_dec.exit41
  %56 = ptrtoint ptr %2 to i64
  %57 = and i64 %56, 1
  %.not77 = icmp eq i64 %57, 0
  br i1 %.not77, label %58, label %lean_dec.exit39

58:                                               ; preds = %lean_dec.exit40
  %59 = load i32, ptr %2, align 4, !tbaa !4
  %60 = icmp sgt i32 %59, 1
  br i1 %60, label %61, label %63, !prof !11

61:                                               ; preds = %58
  %62 = add nsw i32 %59, -1
  store i32 %62, ptr %2, align 4, !tbaa !4
  br label %lean_dec.exit39

63:                                               ; preds = %58
  %.not.i50 = icmp eq i32 %59, 0
  br i1 %.not.i50, label %lean_dec.exit39, label %64

64:                                               ; preds = %63
  tail call void @lean_dec_ref_cold(ptr noundef nonnull %2) #7
  br label %lean_dec.exit39

lean_dec.exit39:                                  ; preds = %64, %63, %61, %lean_dec.exit40
  %65 = getelementptr inbounds nuw i8, ptr %8, i64 8
  %66 = load ptr, ptr %65, align 8, !tbaa !9
  %67 = ptrtoint ptr %66 to i64
  %68 = and i64 %67, 1
  %.not78 = icmp eq i64 %68, 0
  br i1 %.not78, label %69, label %lean_inc.exit35

69:                                               ; preds = %lean_dec.exit39
  %.val.i61 = load i32, ptr %66, align 4, !tbaa !4
  %70 = icmp sgt i32 %.val.i61, 0
  br i1 %70, label %71, label %73, !prof !11

71:                                               ; preds = %69
  %72 = add nuw i32 %.val.i61, 1
  store i32 %72, ptr %66, align 4, !tbaa !4
  br label %lean_inc.exit35

73:                                               ; preds = %69
  %.not.i62 = icmp eq i32 %.val.i61, 0
  br i1 %.not.i62, label %lean_inc.exit35, label %74

74:                                               ; preds = %73
  tail call void @lean_inc_ref_cold(ptr noundef nonnull %66) #7
  br label %lean_inc.exit35

lean_inc.exit35:                                  ; preds = %74, %73, %71, %lean_dec.exit39
  br i1 %.not.i60, label %75, label %lean_dec.exit38

75:                                               ; preds = %lean_inc.exit35
  %76 = load i32, ptr %8, align 4, !tbaa !4
  %77 = icmp sgt i32 %76, 1
  br i1 %77, label %78, label %80, !prof !11

78:                                               ; preds = %75
  %79 = add nsw i32 %76, -1
  store i32 %79, ptr %8, align 4, !tbaa !4
  br label %lean_dec.exit38

80:                                               ; preds = %75
  %.not.i52 = icmp eq i32 %76, 0
  br i1 %.not.i52, label %lean_dec.exit38, label %81

81:                                               ; preds = %80
  tail call void @lean_dec_ref_cold(ptr noundef nonnull %8) #7
  br label %lean_dec.exit38

lean_dec.exit38:                                  ; preds = %81, %80, %78, %lean_inc.exit35
  %82 = getelementptr inbounds nuw i8, ptr %0, i64 8
  %83 = load ptr, ptr %82, align 8, !tbaa !9
  %84 = ptrtoint ptr %83 to i64
  %85 = and i64 %84, 1
  %.not80 = icmp eq i64 %85, 0
  br i1 %.not80, label %86, label %lean_inc.exit34

86:                                               ; preds = %lean_dec.exit38
  %.val.i63 = load i32, ptr %83, align 4, !tbaa !4
  %87 = icmp sgt i32 %.val.i63, 0
  br i1 %87, label %88, label %90, !prof !11

88:                                               ; preds = %86
  %89 = add nuw i32 %.val.i63, 1
  store i32 %89, ptr %83, align 4, !tbaa !4
  br label %lean_inc.exit34

90:                                               ; preds = %86
  %.not.i64 = icmp eq i32 %.val.i63, 0
  br i1 %.not.i64, label %lean_inc.exit34, label %91

91:                                               ; preds = %90
  tail call void @lean_inc_ref_cold(ptr noundef nonnull %83) #7
  br label %lean_inc.exit34

lean_inc.exit34:                                  ; preds = %91, %90, %88, %lean_dec.exit38
  %92 = ptrtoint ptr %0 to i64
  %93 = and i64 %92, 1
  %.not81 = icmp eq i64 %93, 0
  br i1 %.not81, label %94, label %lean_dec.exit37

94:                                               ; preds = %lean_inc.exit34
  %95 = load i32, ptr %0, align 4, !tbaa !4
  %96 = icmp sgt i32 %95, 1
  br i1 %96, label %97, label %99, !prof !11

97:                                               ; preds = %94
  %98 = add nsw i32 %95, -1
  store i32 %98, ptr %0, align 4, !tbaa !4
  br label %lean_dec.exit37

99:                                               ; preds = %94
  %.not.i54 = icmp eq i32 %95, 0
  br i1 %.not.i54, label %lean_dec.exit37, label %100

100:                                              ; preds = %99
  tail call void @lean_dec_ref_cold(ptr noundef nonnull %0) #7
  br label %lean_dec.exit37

lean_dec.exit37:                                  ; preds = %100, %99, %97, %lean_inc.exit34
  %101 = getelementptr inbounds nuw i8, ptr %83, i64 16
  %102 = load ptr, ptr %101, align 8, !tbaa !9
  %103 = ptrtoint ptr %102 to i64
  %104 = and i64 %103, 1
  %.not82 = icmp eq i64 %104, 0
  br i1 %.not82, label %105, label %lean_inc.exit33

105:                                              ; preds = %lean_dec.exit37
  %.val.i66 = load i32, ptr %102, align 4, !tbaa !4
  %106 = icmp sgt i32 %.val.i66, 0
  br i1 %106, label %107, label %109, !prof !11

107:                                              ; preds = %105
  %108 = add nuw i32 %.val.i66, 1
  store i32 %108, ptr %102, align 4, !tbaa !4
  br label %lean_inc.exit33

109:                                              ; preds = %105
  %.not.i67 = icmp eq i32 %.val.i66, 0
  br i1 %.not.i67, label %lean_inc.exit33, label %110

110:                                              ; preds = %109
  tail call void @lean_inc_ref_cold(ptr noundef nonnull %102) #7
  br label %lean_inc.exit33

lean_inc.exit33:                                  ; preds = %110, %109, %107, %lean_dec.exit37
  br i1 %.not80, label %111, label %lean_dec.exit36

111:                                              ; preds = %lean_inc.exit33
  %112 = load i32, ptr %83, align 4, !tbaa !4
  %113 = icmp sgt i32 %112, 1
  br i1 %113, label %114, label %116, !prof !11

114:                                              ; preds = %111
  %115 = add nsw i32 %112, -1
  store i32 %115, ptr %83, align 4, !tbaa !4
  br label %lean_dec.exit36

116:                                              ; preds = %111
  %.not.i56 = icmp eq i32 %112, 0
  br i1 %.not.i56, label %lean_dec.exit36, label %117

117:                                              ; preds = %116
  tail call void @lean_dec_ref_cold(ptr noundef nonnull %83) #7
  br label %lean_dec.exit36

lean_dec.exit36:                                  ; preds = %117, %116, %114, %lean_inc.exit33
  %118 = tail call ptr @lean_apply_2(ptr noundef %102, ptr noundef nonnull inttoptr (i64 1 to ptr), ptr noundef %66) #7
  br label %139

119:                                              ; preds = %lean_obj_tag.exit
  %120 = getelementptr inbounds nuw i8, ptr %8, i64 8
  %121 = load ptr, ptr %120, align 8, !tbaa !9
  %122 = ptrtoint ptr %121 to i64
  %123 = and i64 %122, 1
  %.not = icmp eq i64 %123, 0
  br i1 %.not, label %124, label %lean_inc.exit

124:                                              ; preds = %119
  %.val.i69 = load i32, ptr %121, align 4, !tbaa !4
  %125 = icmp sgt i32 %.val.i69, 0
  br i1 %125, label %126, label %128, !prof !11

126:                                              ; preds = %124
  %127 = add nuw i32 %.val.i69, 1
  store i32 %127, ptr %121, align 4, !tbaa !4
  br label %lean_inc.exit

128:                                              ; preds = %124
  %.not.i70 = icmp eq i32 %.val.i69, 0
  br i1 %.not.i70, label %lean_inc.exit, label %129

129:                                              ; preds = %128
  tail call void @lean_inc_ref_cold(ptr noundef nonnull %121) #7
  br label %lean_inc.exit

lean_inc.exit:                                    ; preds = %129, %128, %126, %119
  br i1 %.not.i60, label %130, label %lean_dec.exit

130:                                              ; preds = %lean_inc.exit
  %131 = load i32, ptr %8, align 4, !tbaa !4
  %132 = icmp sgt i32 %131, 1
  br i1 %132, label %133, label %135, !prof !11

133:                                              ; preds = %130
  %134 = add nsw i32 %131, -1
  store i32 %134, ptr %8, align 4, !tbaa !4
  br label %lean_dec.exit

135:                                              ; preds = %130
  %.not.i58 = icmp eq i32 %131, 0
  br i1 %.not.i58, label %lean_dec.exit, label %136

136:                                              ; preds = %135
  tail call void @lean_dec_ref_cold(ptr noundef nonnull %8) #7
  br label %lean_dec.exit

lean_dec.exit:                                    ; preds = %136, %135, %133, %lean_inc.exit
  %137 = add i64 %1, 1
  %138 = tail call ptr @l_Array_forIn_x27Unsafe_loop___at_Lean_pushScope___spec__1___rarg(ptr noundef %0, ptr noundef %2, ptr noundef %3, ptr noundef %4, ptr noundef %5, ptr noundef %6, i64 noundef %7, i64 noundef %137, ptr noundef %121)
  br label %139

139:                                              ; preds = %lean_dec.exit, %lean_dec.exit36
  %.0 = phi ptr [ %118, %lean_dec.exit36 ], [ %138, %lean_dec.exit ]
  ret ptr %.0
}